target datalayout = "e-m:e-p270:32:32-p271:32:32-p272:64:64-i64:64-i128:128-f80:128-n8:16:32:64-S128"
target triple = "x86_64-unknown-linux-gnu"

%"class.Assimp::ASEImporter" = type <{ %"class.Assimp::BaseImporter", ptr, ptr, ptr, i8, i8, [6 x i8] }>
%"class.Assimp::BaseImporter" = type { ptr, double, double, %"class.std::__cxx11::basic_string", %"class.std::__exception_ptr::exception_ptr", ptr }
%"class.std::__cxx11::basic_string" = type { %"struct.std::__cxx11::basic_string<char>::_Alloc_hider", i64, %union.anon }
%"struct.std::__cxx11::basic_string<char>::_Alloc_hider" = type { ptr }
%union.anon = type { i64, [8 x i8] }
%"class.std::__exception_ptr::exception_ptr" = type { ptr }

@.str.1 = private unnamed_addr constant [31 x i8] c"IMPORT_ASE_RECONSTRUCT_NORMALS\00", align 1
@.str.2 = private unnamed_addr constant [26 x i8] c"IMPORT_NO_SKELETON_MESHES\00", align 1

; Function Attrs: mustprogress uwtable
define hidden void @_ZN6Assimp11ASEImporter15SetupPropertiesEPKNS_8ImporterE(ptr noundef nonnull align 8 dereferenceable(98) %this, ptr noundef %pImp) unnamed_addr #3 align 2 {
entry:
  %this.addr = alloca ptr, align 8
  %pImp.addr = alloca ptr, align 8
  store ptr %this, ptr %this.addr, align 8
  store ptr %pImp, ptr %pImp.addr, align 8
  %this1 = load ptr, ptr %this.addr, align 8
  %0 = load ptr, ptr %pImp.addr, align 8
  %call = call noundef i32 @_ZNK6Assimp8Importer18GetPropertyIntegerEPKci(ptr noundef nonnull align 8 dereferenceable(8) %0, ptr noundef @.str.1, i32 noundef 1)
  %tobool = icmp ne i32 %call, 0
  %cond = select i1 %tobool, i1 true, i1 false
  %configRecomputeNormals = getelementptr inbounds %"class.Assimp::ASEImporter", ptr %this1, i32 0, i32 4
  %frombool = zext i1 %cond to i8
  store i8 %frombool, ptr %configRecomputeNormals, align 8
  %1 = load ptr, ptr %pImp.addr, align 8
  %call2 = call noundef i32 @_ZNK6Assimp8Importer18GetPropertyIntegerEPKci(ptr noundef nonnull align 8 dereferenceable(8) %1, ptr noundef @.str.2, i32 noundef 0)
  %cmp = icmp ne i32 %call2, 0
  %noSkeletonMesh = getelementptr inbounds %"class.Assimp::ASEImporter", ptr %this1, i32 0, i32 5
  %frombool3 = zext i1 %cmp to i8
  store i8 %frombool3, ptr %noSkeletonMesh, align 1
  ret void
}