; Function Attrs: mustprogress uwtable
define hidden void @_ZN6Assimp11ASEImporter15SetupPropertiesEPKNS_8ImporterE(ptr nocapture noundef nonnull writeonly align 8 dereferenceable(98) %this, ptr noundef nonnull %pImp) unnamed_addr #2 align 2 {
entry:
  %call = tail call noundef i32 @_ZNK6Assimp8Importer18GetPropertyIntegerEPKci(ptr noundef nonnull align 8 dereferenceable(8) %pImp, ptr noundef nonnull @.str.1, i32 noundef 1)
  %tobool = icmp ne i32 %call, 0
  %configRecomputeNormals = getelementptr inbounds i8, ptr %this, i64 96
  %frombool = zext i1 %tobool to i8
  store i8 %frombool, ptr %configRecomputeNormals, align 8
  %call2 = tail call noundef i32 @_ZNK6Assimp8Importer18GetPropertyIntegerEPKci(ptr noundef nonnull align 8 dereferenceable(8) %pImp, ptr noundef nonnull @.str.2, i32 noundef 0)
  %cmp = icmp ne i32 %call2, 0
  %noSkeletonMesh = getelementptr inbounds i8, ptr %this, i64 97
  %frombool3 = zext i1 %cmp to i8
  store i8 %frombool3, ptr %noSkeletonMesh, align 1
  ret void
}